target datalayout = "e-m:e-p270:32:32-p271:32:32-p272:64:64-i64:64-i128:128-f80:128-n8:16:32:64-S128"
target triple = "x86_64-pc-linux-gnu"

%struct.edpar = type { i32, i8, i8, i32, i32, i32, %struct.gmx_edx, i8, %struct.gmx_edx, %struct.gmx_edx, %struct.gmx_edx, %"struct.(anonymous namespace)::t_edvecs", float, %"struct.(anonymous namespace)::t_edflood", ptr }
%struct.gmx_edx = type { i32, i32, ptr, ptr, i32, ptr, ptr, ptr, ptr, float, ptr }
%"struct.(anonymous namespace)::t_edvecs" = type { %"struct.(anonymous namespace)::t_eigvec", %"struct.(anonymous namespace)::t_eigvec", %"struct.(anonymous namespace)::t_eigvec", %"struct.(anonymous namespace)::t_eigvec", %"struct.(anonymous namespace)::t_eigvec", %"struct.(anonymous namespace)::t_eigvec" }
%"struct.(anonymous namespace)::t_eigvec" = type { i32, ptr, ptr, ptr, ptr, ptr, float, ptr }
%"struct.(anonymous namespace)::t_edflood" = type { float, i8, float, float, float, float, float, float, float, float, ptr, %"struct.(anonymous namespace)::t_eigvec", i8, ptr, ptr }

; Function Attrs: inlinehint mustprogress nounwind uwtable
define internal noundef float @_ZL5iprodPKfS0_(ptr noundef %0, ptr noundef %1) #7 {
  %3 = alloca ptr, align 8
  %4 = alloca ptr, align 8
  store ptr %0, ptr %3, align 8, !tbaa !67
  store ptr %1, ptr %4, align 8, !tbaa !67
  %5 = load ptr, ptr %3, align 8, !tbaa !67
  %6 = getelementptr inbounds float, ptr %5, i64 0
  %7 = load float, ptr %6, align 4, !tbaa !229
  %8 = load ptr, ptr %4, align 8, !tbaa !67
  %9 = getelementptr inbounds float, ptr %8, i64 0
  %10 = load float, ptr %9, align 4, !tbaa !229
  %11 = load ptr, ptr %3, align 8, !tbaa !67
  %12 = getelementptr inbounds float, ptr %11, i64 1
  %13 = load float, ptr %12, align 4, !tbaa !229
  %14 = load ptr, ptr %4, align 8, !tbaa !67
  %15 = getelementptr inbounds float, ptr %14, i64 1
  %16 = load float, ptr %15, align 4, !tbaa !229
  %17 = fmul float %13, %16
  %18 = call float @llvm.fmuladd.f32(float %7, float %10, float %17)
  %19 = load ptr, ptr %3, align 8, !tbaa !67
  %20 = getelementptr inbounds float, ptr %19, i64 2
  %21 = load float, ptr %20, align 4, !tbaa !229
  %22 = load ptr, ptr %4, align 8, !tbaa !67
  %23 = getelementptr inbounds float, ptr %22, i64 2
  %24 = load float, ptr %23, align 4, !tbaa !229
  %25 = call float @llvm.fmuladd.f32(float %21, float %24, float %18)
  ret float %25
}

; Function Attrs: inlinehint mustprogress nounwind uwtable
define internal void @_ZL8rvec_incPfPKf(ptr noundef %0, ptr noundef %1) #7 {
  %3 = alloca ptr, align 8
  %4 = alloca ptr, align 8
  %5 = alloca float, align 4
  %6 = alloca float, align 4
  %7 = alloca float, align 4
  store ptr %0, ptr %3, align 8, !tbaa !67
  store ptr %1, ptr %4, align 8, !tbaa !67
  call void @llvm.lifetime.start.p0(i64 4, ptr %5) #17
  call void @llvm.lifetime.start.p0(i64 4, ptr %6) #17
  call void @llvm.lifetime.start.p0(i64 4, ptr %7) #17
  %8 = load ptr, ptr %3, align 8, !tbaa !67
  %9 = getelementptr inbounds float, ptr %8, i64 0
  %10 = load float, ptr %9, align 4, !tbaa !229
  %11 = load ptr, ptr %4, align 8, !tbaa !67
  %12 = getelementptr inbounds float, ptr %11, i64 0
  %13 = load float, ptr %12, align 4, !tbaa !229
  %14 = fadd float %10, %13
  store float %14, ptr %5, align 4, !tbaa !229
  %15 = load ptr, ptr %3, align 8, !tbaa !67
  %16 = getelementptr inbounds float, ptr %15, i64 1
  %17 = load float, ptr %16, align 4, !tbaa !229
  %18 = load ptr, ptr %4, align 8, !tbaa !67
  %19 = getelementptr inbounds float, ptr %18, i64 1
  %20 = load float, ptr %19, align 4, !tbaa !229
  %21 = fadd float %17, %20
  store float %21, ptr %6, align 4, !tbaa !229
  %22 = load ptr, ptr %3, align 8, !tbaa !67
  %23 = getelementptr inbounds float, ptr %22, i64 2
  %24 = load float, ptr %23, align 4, !tbaa !229
  %25 = load ptr, ptr %4, align 8, !tbaa !67
  %26 = getelementptr inbounds float, ptr %25, i64 2
  %27 = load float, ptr %26, align 4, !tbaa !229
  %28 = fadd float %24, %27
  store float %28, ptr %7, align 4, !tbaa !229
  %29 = load float, ptr %5, align 4, !tbaa !229
  %30 = load ptr, ptr %3, align 8, !tbaa !67
  %31 = getelementptr inbounds float, ptr %30, i64 0
  store float %29, ptr %31, align 4, !tbaa !229
  %32 = load float, ptr %6, align 4, !tbaa !229
  %33 = load ptr, ptr %3, align 8, !tbaa !67
  %34 = getelementptr inbounds float, ptr %33, i64 1
  store float %32, ptr %34, align 4, !tbaa !229
  %35 = load float, ptr %7, align 4, !tbaa !229
  %36 = load ptr, ptr %3, align 8, !tbaa !67
  %37 = getelementptr inbounds float, ptr %36, i64 2
  store float %35, ptr %37, align 4, !tbaa !229
  call void @llvm.lifetime.end.p0(i64 4, ptr %7) #17
  call void @llvm.lifetime.end.p0(i64 4, ptr %6) #17
  call void @llvm.lifetime.end.p0(i64 4, ptr %5) #17
  ret void
}

; Function Attrs: inlinehint mustprogress nounwind uwtable
define internal void @_ZL5svmulfPKfPf(float noundef %0, ptr noundef %1, ptr noundef %2) #7 {
  %4 = alloca float, align 4
  %5 = alloca ptr, align 8
  %6 = alloca ptr, align 8
  store float %0, ptr %4, align 4, !tbaa !229
  store ptr %1, ptr %5, align 8, !tbaa !67
  store ptr %2, ptr %6, align 8, !tbaa !67
  %7 = load float, ptr %4, align 4, !tbaa !229
  %8 = load ptr, ptr %5, align 8, !tbaa !67
  %9 = getelementptr inbounds float, ptr %8, i64 0
  %10 = load float, ptr %9, align 4, !tbaa !229
  %11 = fmul float %7, %10
  %12 = load ptr, ptr %6, align 8, !tbaa !67
  %13 = getelementptr inbounds float, ptr %12, i64 0
  store float %11, ptr %13, align 4, !tbaa !229
  %14 = load float, ptr %4, align 4, !tbaa !229
  %15 = load ptr, ptr %5, align 8, !tbaa !67
  %16 = getelementptr inbounds float, ptr %15, i64 1
  %17 = load float, ptr %16, align 4, !tbaa !229
  %18 = fmul float %14, %17
  %19 = load ptr, ptr %6, align 8, !tbaa !67
  %20 = getelementptr inbounds float, ptr %19, i64 1
  store float %18, ptr %20, align 4, !tbaa !229
  %21 = load float, ptr %4, align 4, !tbaa !229
  %22 = load ptr, ptr %5, align 8, !tbaa !67
  %23 = getelementptr inbounds float, ptr %22, i64 2
  %24 = load float, ptr %23, align 4, !tbaa !229
  %25 = fmul float %21, %24
  %26 = load ptr, ptr %6, align 8, !tbaa !67
  %27 = getelementptr inbounds float, ptr %26, i64 2
  store float %25, ptr %27, align 4, !tbaa !229
  ret void
}

; Function Attrs: mustprogress uwtable
define internal noundef float @_ZN12_GLOBAL__N_18projectxERK5edparPA3_fS4_(ptr noundef nonnull align 8 dereferenceable(888) %0, ptr noundef %1, ptr noundef %2) #4 {
  %4 = alloca ptr, align 8
  %5 = alloca ptr, align 8
  %6 = alloca ptr, align 8
  %7 = alloca i32, align 4
  %8 = alloca float, align 4
  store ptr %0, ptr %4, align 8, !tbaa !22
  store ptr %1, ptr %5, align 8, !tbaa !67
  store ptr %2, ptr %6, align 8, !tbaa !67
  call void @llvm.lifetime.start.p0(i64 4, ptr %7) #17
  call void @llvm.lifetime.start.p0(i64 4, ptr %8) #17
  store float 0.000000e+00, ptr %8, align 4, !tbaa !229
  store i32 0, ptr %7, align 4, !tbaa !226
  br label %9

9:                                                ; preds = %38, %3
  %10 = load i32, ptr %7, align 4, !tbaa !226
  %11 = load ptr, ptr %4, align 8, !tbaa !22
  %12 = getelementptr inbounds nuw %struct.edpar, ptr %11, i32 0, i32 8
  %13 = getelementptr inbounds nuw %struct.gmx_edx, ptr %12, i32 0, i32 0
  %14 = load i32, ptr %13, align 8, !tbaa !208
  %15 = icmp slt i32 %10, %14
  br i1 %15, label %16, label %41

16:                                               ; preds = %9
  %17 = load ptr, ptr %4, align 8, !tbaa !22
  %18 = getelementptr inbounds nuw %struct.edpar, ptr %17, i32 0, i32 8
  %19 = getelementptr inbounds nuw %struct.gmx_edx, ptr %18, i32 0, i32 10
  %20 = load ptr, ptr %19, align 8, !tbaa !320
  %21 = load i32, ptr %7, align 4, !tbaa !226
  %22 = sext i32 %21 to i64
  %23 = getelementptr inbounds float, ptr %20, i64 %22
  %24 = load float, ptr %23, align 4, !tbaa !229
  %25 = load ptr, ptr %6, align 8, !tbaa !67
  %26 = load i32, ptr %7, align 4, !tbaa !226
  %27 = sext i32 %26 to i64
  %28 = getelementptr inbounds [3 x float], ptr %25, i64 %27
  %29 = getelementptr inbounds [3 x float], ptr %28, i64 0, i64 0
  %30 = load ptr, ptr %5, align 8, !tbaa !67
  %31 = load i32, ptr %7, align 4, !tbaa !226
  %32 = sext i32 %31 to i64
  %33 = getelementptr inbounds [3 x float], ptr %30, i64 %32
  %34 = getelementptr inbounds [3 x float], ptr %33, i64 0, i64 0
  %35 = call noundef float @_ZL5iprodPKfS0_(ptr noundef %29, ptr noundef %34)
  %36 = load float, ptr %8, align 4, !tbaa !229
  %37 = call float @llvm.fmuladd.f32(float %24, float %35, float %36)
  store float %37, ptr %8, align 4, !tbaa !229
  br label %38

38:                                               ; preds = %16
  %39 = load i32, ptr %7, align 4, !tbaa !226
  %40 = add nsw i32 %39, 1
  store i32 %40, ptr %7, align 4, !tbaa !226
  br label %9, !llvm.loop !321

41:                                               ; preds = %9
  %42 = load float, ptr %8, align 4, !tbaa !229
  call void @llvm.lifetime.end.p0(i64 4, ptr %8) #17
  call void @llvm.lifetime.end.p0(i64 4, ptr %7) #17
  ret float %42
}

; Function Attrs: mustprogress uwtable
define internal void @_ZN12_GLOBAL__N_19do_linaccEPA3_fP5edpar(ptr noundef %0, ptr noundef %1) #4 {
  %3 = alloca ptr, align 8
  %4 = alloca ptr, align 8
  %5 = alloca i32, align 4
  %6 = alloca i32, align 4
  %7 = alloca float, align 4
  %8 = alloca float, align 4
  %9 = alloca i32, align 4
  %10 = alloca [3 x float], align 4
  store ptr %0, ptr %3, align 8, !tbaa !67
  store ptr %1, ptr %4, align 8, !tbaa !22
  call void @llvm.lifetime.start.p0(i64 4, ptr %5) #17
  store i32 0, ptr %5, align 4, !tbaa !226
  br label %11

11:                                               ; preds = %166, %2
  %12 = load i32, ptr %5, align 4, !tbaa !226
  %13 = load ptr, ptr %4, align 8, !tbaa !22
  %14 = getelementptr inbounds nuw %struct.edpar, ptr %13, i32 0, i32 11
  %15 = getelementptr inbounds nuw %"struct.(anonymous namespace)::t_edvecs", ptr %14, i32 0, i32 2
  %16 = getelementptr inbounds nuw %"struct.(anonymous namespace)::t_eigvec", ptr %15, i32 0, i32 0
  %17 = load i32, ptr %16, align 8, !tbaa !566
  %18 = icmp slt i32 %12, %17
  br i1 %18, label %20, label %19

19:                                               ; preds = %11
  store i32 2, ptr %6, align 4
  call void @llvm.lifetime.end.p0(i64 4, ptr %5) #17
  br label %169

20:                                               ; preds = %11
  call void @llvm.lifetime.start.p0(i64 4, ptr %7) #17
  %21 = load ptr, ptr %4, align 8, !tbaa !22
  %22 = load ptr, ptr %3, align 8, !tbaa !67
  %23 = load ptr, ptr %4, align 8, !tbaa !22
  %24 = getelementptr inbounds nuw %struct.edpar, ptr %23, i32 0, i32 11
  %25 = getelementptr inbounds nuw %"struct.(anonymous namespace)::t_edvecs", ptr %24, i32 0, i32 2
  %26 = getelementptr inbounds nuw %"struct.(anonymous namespace)::t_eigvec", ptr %25, i32 0, i32 3
  %27 = load ptr, ptr %26, align 8, !tbaa !788
  %28 = load i32, ptr %5, align 4, !tbaa !226
  %29 = sext i32 %28 to i64
  %30 = getelementptr inbounds ptr, ptr %27, i64 %29
  %31 = load ptr, ptr %30, align 8, !tbaa !67
  %32 = call noundef float @_ZN12_GLOBAL__N_18projectxERK5edparPA3_fS4_(ptr noundef nonnull align 8 dereferenceable(888) %21, ptr noundef %22, ptr noundef %31)
  store float %32, ptr %7, align 4, !tbaa !229
  call void @llvm.lifetime.start.p0(i64 4, ptr %8) #17
  store float 0.000000e+00, ptr %8, align 4, !tbaa !229
  %33 = load ptr, ptr %4, align 8, !tbaa !22
  %34 = getelementptr inbounds nuw %struct.edpar, ptr %33, i32 0, i32 11
  %35 = getelementptr inbounds nuw %"struct.(anonymous namespace)::t_edvecs", ptr %34, i32 0, i32 2
  %36 = getelementptr inbounds nuw %"struct.(anonymous namespace)::t_eigvec", ptr %35, i32 0, i32 2
  %37 = load ptr, ptr %36, align 8, !tbaa !789
  %38 = load i32, ptr %5, align 4, !tbaa !226
  %39 = sext i32 %38 to i64
  %40 = getelementptr inbounds float, ptr %37, i64 %39
  %41 = load float, ptr %40, align 4, !tbaa !229
  %42 = fpext float %41 to double
  %43 = fcmp ogt double %42, 0.000000e+00
  br i1 %43, label %44, label %71

44:                                               ; preds = %20
  %45 = load float, ptr %7, align 4, !tbaa !229
  %46 = load ptr, ptr %4, align 8, !tbaa !22
  %47 = getelementptr inbounds nuw %struct.edpar, ptr %46, i32 0, i32 11
  %48 = getelementptr inbounds nuw %"struct.(anonymous namespace)::t_edvecs", ptr %47, i32 0, i32 2
  %49 = getelementptr inbounds nuw %"struct.(anonymous namespace)::t_eigvec", ptr %48, i32 0, i32 7
  %50 = load ptr, ptr %49, align 8, !tbaa !790
  %51 = load i32, ptr %5, align 4, !tbaa !226
  %52 = sext i32 %51 to i64
  %53 = getelementptr inbounds float, ptr %50, i64 %52
  %54 = load float, ptr %53, align 4, !tbaa !229
  %55 = fsub float %45, %54
  %56 = fpext float %55 to double
  %57 = fcmp olt double %56, 0.000000e+00
  br i1 %57, label %58, label %70

58:                                               ; preds = %44
  %59 = load ptr, ptr %4, align 8, !tbaa !22
  %60 = getelementptr inbounds nuw %struct.edpar, ptr %59, i32 0, i32 11
  %61 = getelementptr inbounds nuw %"struct.(anonymous namespace)::t_edvecs", ptr %60, i32 0, i32 2
  %62 = getelementptr inbounds nuw %"struct.(anonymous namespace)::t_eigvec", ptr %61, i32 0, i32 7
  %63 = load ptr, ptr %62, align 8, !tbaa !790
  %64 = load i32, ptr %5, align 4, !tbaa !226
  %65 = sext i32 %64 to i64
  %66 = getelementptr inbounds float, ptr %63, i64 %65
  %67 = load float, ptr %66, align 4, !tbaa !229
  %68 = load float, ptr %7, align 4, !tbaa !229
  %69 = fsub float %67, %68
  store float %69, ptr %8, align 4, !tbaa !229
  br label %70

70:                                               ; preds = %58, %44
  br label %71

71:                                               ; preds = %70, %20
  %72 = load ptr, ptr %4, align 8, !tbaa !22
  %73 = getelementptr inbounds nuw %struct.edpar, ptr %72, i32 0, i32 11
  %74 = getelementptr inbounds nuw %"struct.(anonymous namespace)::t_edvecs", ptr %73, i32 0, i32 2
  %75 = getelementptr inbounds nuw %"struct.(anonymous namespace)::t_eigvec", ptr %74, i32 0, i32 2
  %76 = load ptr, ptr %75, align 8, !tbaa !789
  %77 = load i32, ptr %5, align 4, !tbaa !226
  %78 = sext i32 %77 to i64
  %79 = getelementptr inbounds float, ptr %76, i64 %78
  %80 = load float, ptr %79, align 4, !tbaa !229
  %81 = fpext float %80 to double
  %82 = fcmp olt double %81, 0.000000e+00
  br i1 %82, label %83, label %110

83:                                               ; preds = %71
  %84 = load float, ptr %7, align 4, !tbaa !229
  %85 = load ptr, ptr %4, align 8, !tbaa !22
  %86 = getelementptr inbounds nuw %struct.edpar, ptr %85, i32 0, i32 11
  %87 = getelementptr inbounds nuw %"struct.(anonymous namespace)::t_edvecs", ptr %86, i32 0, i32 2
  %88 = getelementptr inbounds nuw %"struct.(anonymous namespace)::t_eigvec", ptr %87, i32 0, i32 7
  %89 = load ptr, ptr %88, align 8, !tbaa !790
  %90 = load i32, ptr %5, align 4, !tbaa !226
  %91 = sext i32 %90 to i64
  %92 = getelementptr inbounds float, ptr %89, i64 %91
  %93 = load float, ptr %92, align 4, !tbaa !229
  %94 = fsub float %84, %93
  %95 = fpext float %94 to double
  %96 = fcmp ogt double %95, 0.000000e+00
  br i1 %96, label %97, label %109

97:                                               ; preds = %83
  %98 = load ptr, ptr %4, align 8, !tbaa !22
  %99 = getelementptr inbounds nuw %struct.edpar, ptr %98, i32 0, i32 11
  %100 = getelementptr inbounds nuw %"struct.(anonymous namespace)::t_edvecs", ptr %99, i32 0, i32 2
  %101 = getelementptr inbounds nuw %"struct.(anonymous namespace)::t_eigvec", ptr %100, i32 0, i32 7
  %102 = load ptr, ptr %101, align 8, !tbaa !790
  %103 = load i32, ptr %5, align 4, !tbaa !226
  %104 = sext i32 %103 to i64
  %105 = getelementptr inbounds float, ptr %102, i64 %104
  %106 = load float, ptr %105, align 4, !tbaa !229
  %107 = load float, ptr %7, align 4, !tbaa !229
  %108 = fsub float %106, %107
  store float %108, ptr %8, align 4, !tbaa !229
  br label %109

109:                                              ; preds = %97, %83
  br label %110

110:                                              ; preds = %109, %71
  %111 = load ptr, ptr %4, align 8, !tbaa !22
  %112 = getelementptr inbounds nuw %struct.edpar, ptr %111, i32 0, i32 8
  %113 = getelementptr inbounds nuw %struct.gmx_edx, ptr %112, i32 0, i32 10
  %114 = load ptr, ptr %113, align 8, !tbaa !320
  %115 = load i32, ptr %5, align 4, !tbaa !226
  %116 = sext i32 %115 to i64
  %117 = getelementptr inbounds float, ptr %114, i64 %116
  %118 = load float, ptr %117, align 4, !tbaa !229
  %119 = load float, ptr %8, align 4, !tbaa !229
  %120 = fdiv float %119, %118
  store float %120, ptr %8, align 4, !tbaa !229
  call void @llvm.lifetime.start.p0(i64 4, ptr %9) #17
  store i32 0, ptr %9, align 4, !tbaa !226
  br label %121

121:                                              ; preds = %151, %110
  %122 = load i32, ptr %9, align 4, !tbaa !226
  %123 = load ptr, ptr %4, align 8, !tbaa !22
  %124 = getelementptr inbounds nuw %struct.edpar, ptr %123, i32 0, i32 8
  %125 = getelementptr inbounds nuw %struct.gmx_edx, ptr %124, i32 0, i32 0
  %126 = load i32, ptr %125, align 8, !tbaa !208
  %127 = icmp slt i32 %122, %126
  br i1 %127, label %129, label %128

128:                                              ; preds = %121
  store i32 5, ptr %6, align 4
  call void @llvm.lifetime.end.p0(i64 4, ptr %9) #17
  br label %154

129:                                              ; preds = %121
  call void @llvm.lifetime.start.p0(i64 12, ptr %10) #17
  %130 = load float, ptr %8, align 4, !tbaa !229
  %131 = load ptr, ptr %4, align 8, !tbaa !22
  %132 = getelementptr inbounds nuw %struct.edpar, ptr %131, i32 0, i32 11
  %133 = getelementptr inbounds nuw %"struct.(anonymous namespace)::t_edvecs", ptr %132, i32 0, i32 2
  %134 = getelementptr inbounds nuw %"struct.(anonymous namespace)::t_eigvec", ptr %133, i32 0, i32 3
  %135 = load ptr, ptr %134, align 8, !tbaa !788
  %136 = load i32, ptr %5, align 4, !tbaa !226
  %137 = sext i32 %136 to i64
  %138 = getelementptr inbounds ptr, ptr %135, i64 %137
  %139 = load ptr, ptr %138, align 8, !tbaa !67
  %140 = load i32, ptr %9, align 4, !tbaa !226
  %141 = sext i32 %140 to i64
  %142 = getelementptr inbounds [3 x float], ptr %139, i64 %141
  %143 = getelementptr inbounds [3 x float], ptr %142, i64 0, i64 0
  %144 = getelementptr inbounds [3 x float], ptr %10, i64 0, i64 0
  call void @_ZL5svmulfPKfPf(float noundef %130, ptr noundef %143, ptr noundef %144)
  %145 = load ptr, ptr %3, align 8, !tbaa !67
  %146 = load i32, ptr %9, align 4, !tbaa !226
  %147 = sext i32 %146 to i64
  %148 = getelementptr inbounds [3 x float], ptr %145, i64 %147
  %149 = getelementptr inbounds [3 x float], ptr %148, i64 0, i64 0
  %150 = getelementptr inbounds [3 x float], ptr %10, i64 0, i64 0
  call void @_ZL8rvec_incPfPKf(ptr noundef %149, ptr noundef %150)
  call void @llvm.lifetime.end.p0(i64 12, ptr %10) #17
  br label %151

151:                                              ; preds = %129
  %152 = load i32, ptr %9, align 4, !tbaa !226
  %153 = add nsw i32 %152, 1
  store i32 %153, ptr %9, align 4, !tbaa !226
  br label %121, !llvm.loop !791

154:                                              ; preds = %128
  %155 = load float, ptr %7, align 4, !tbaa !229
  %156 = load float, ptr %8, align 4, !tbaa !229
  %157 = fadd float %155, %156
  %158 = load ptr, ptr %4, align 8, !tbaa !22
  %159 = getelementptr inbounds nuw %struct.edpar, ptr %158, i32 0, i32 11
  %160 = getelementptr inbounds nuw %"struct.(anonymous namespace)::t_edvecs", ptr %159, i32 0, i32 2
  %161 = getelementptr inbounds nuw %"struct.(anonymous namespace)::t_eigvec", ptr %160, i32 0, i32 7
  %162 = load ptr, ptr %161, align 8, !tbaa !790
  %163 = load i32, ptr %5, align 4, !tbaa !226
  %164 = sext i32 %163 to i64
  %165 = getelementptr inbounds float, ptr %162, i64 %164
  store float %157, ptr %165, align 4, !tbaa !229
  call void @llvm.lifetime.end.p0(i64 4, ptr %8) #17
  call void @llvm.lifetime.end.p0(i64 4, ptr %7) #17
  br label %166

166:                                              ; preds = %154
  %167 = load i32, ptr %5, align 4, !tbaa !226
  %168 = add nsw i32 %167, 1
  store i32 %168, ptr %5, align 4, !tbaa !226
  br label %11, !llvm.loop !792

169:                                              ; preds = %19
  ret void
}