; Function Attrs: mustprogress nofree norecurse nosync nounwind memory(readwrite, inaccessiblemem: none) uwtable
define internal fastcc void @_ZN12_GLOBAL__N_19do_linaccEPA3_fP5edpar(ptr noundef captures(none) %0, ptr noundef nonnull readonly captures(none) %1) unnamed_addr #11 {
  %3 = getelementptr inbounds nuw i8, ptr %1, i64 480
  %4 = load i32, ptr %3, align 8, !tbaa !442
  %5 = icmp sgt i32 %4, 0
  br i1 %5, label %.lr.ph44, label %._crit_edge45

.lr.ph44:                                         ; preds = %2
  %6 = getelementptr inbounds nuw i8, ptr %1, i64 504
  %7 = load ptr, ptr %6, align 8, !tbaa !538
  %8 = getelementptr i8, ptr %1, i64 112
  %9 = getelementptr i8, ptr %1, i64 184
  %10 = getelementptr inbounds nuw i8, ptr %1, i64 496
  %11 = load ptr, ptr %10, align 8, !tbaa !539
  %12 = getelementptr inbounds nuw i8, ptr %1, i64 536
  %13 = load ptr, ptr %12, align 8, !tbaa !540
  %wide.trip.count50 = zext nneg i32 %4 to i64
  br label %14

._crit_edge45:                                    ; preds = %._crit_edge, %2
  ret void

14:                                               ; preds = %.lr.ph44, %._crit_edge
  %indvars.iv47 = phi i64 [ 0, %.lr.ph44 ], [ %indvars.iv.next48, %._crit_edge ]
  %15 = getelementptr inbounds nuw ptr, ptr %7, i64 %indvars.iv47
  %16 = load ptr, ptr %15, align 8, !tbaa !172
  %.val = load i32, ptr %8, align 8
  %.val40 = load ptr, ptr %9, align 8
  %17 = icmp sgt i32 %.val, 0
  br i1 %17, label %.lr.ph.preheader.i, label %_ZN12_GLOBAL__N_18projectxERK5edparPA3_fS4_.exit

.lr.ph.preheader.i:                               ; preds = %14
  %wide.trip.count.i = zext nneg i32 %.val to i64
  br label %.lr.ph.i

.lr.ph.i:                                         ; preds = %.lr.ph.i, %.lr.ph.preheader.i
  %indvars.iv.i = phi i64 [ 0, %.lr.ph.preheader.i ], [ %indvars.iv.next.i, %.lr.ph.i ]
  %.02.i = phi float [ 0.000000e+00, %.lr.ph.preheader.i ], [ %35, %.lr.ph.i ]
  %18 = getelementptr inbounds nuw float, ptr %.val40, i64 %indvars.iv.i
  %19 = load float, ptr %18, align 4, !tbaa !178
  %20 = getelementptr inbounds nuw [3 x float], ptr %16, i64 %indvars.iv.i
  %21 = getelementptr inbounds nuw [3 x float], ptr %0, i64 %indvars.iv.i
  %22 = load float, ptr %20, align 4, !tbaa !178
  %23 = load float, ptr %21, align 4, !tbaa !178
  %24 = getelementptr inbounds nuw i8, ptr %20, i64 4
  %25 = load float, ptr %24, align 4, !tbaa !178
  %26 = getelementptr inbounds nuw i8, ptr %21, i64 4
  %27 = load float, ptr %26, align 4, !tbaa !178
  %28 = fmul float %25, %27
  %29 = tail call float @llvm.fmuladd.f32(float %22, float %23, float %28)
  %30 = getelementptr inbounds nuw i8, ptr %20, i64 8
  %31 = load float, ptr %30, align 4, !tbaa !178
  %32 = getelementptr inbounds nuw i8, ptr %21, i64 8
  %33 = load float, ptr %32, align 4, !tbaa !178
  %34 = tail call noundef float @llvm.fmuladd.f32(float %31, float %33, float %29)
  %35 = tail call float @llvm.fmuladd.f32(float %19, float %34, float %.02.i)
  %indvars.iv.next.i = add nuw nsw i64 %indvars.iv.i, 1
  %exitcond.not.i = icmp eq i64 %indvars.iv.next.i, %wide.trip.count.i
  br i1 %exitcond.not.i, label %_ZN12_GLOBAL__N_18projectxERK5edparPA3_fS4_.exit, label %.lr.ph.i, !llvm.loop !242

_ZN12_GLOBAL__N_18projectxERK5edparPA3_fS4_.exit: ; preds = %.lr.ph.i, %14
  %.0.lcssa.i = phi float [ 0.000000e+00, %14 ], [ %35, %.lr.ph.i ]
  %36 = getelementptr inbounds nuw float, ptr %11, i64 %indvars.iv47
  %37 = load float, ptr %36, align 4, !tbaa !178
  %38 = fcmp ogt float %37, 0.000000e+00
  br i1 %38, label %39, label %45

39:                                               ; preds = %_ZN12_GLOBAL__N_18projectxERK5edparPA3_fS4_.exit
  %40 = getelementptr inbounds nuw float, ptr %13, i64 %indvars.iv47
  %41 = load float, ptr %40, align 4, !tbaa !178
  %42 = fcmp olt float %.0.lcssa.i, %41
  br i1 %42, label %43, label %45

43:                                               ; preds = %39
  %44 = fsub float %41, %.0.lcssa.i
  br label %45

45:                                               ; preds = %39, %43, %_ZN12_GLOBAL__N_18projectxERK5edparPA3_fS4_.exit
  %.038 = phi float [ %44, %43 ], [ 0.000000e+00, %39 ], [ 0.000000e+00, %_ZN12_GLOBAL__N_18projectxERK5edparPA3_fS4_.exit ]
  %46 = fcmp olt float %37, 0.000000e+00
  br i1 %46, label %47, label %53

47:                                               ; preds = %45
  %48 = getelementptr inbounds nuw float, ptr %13, i64 %indvars.iv47
  %49 = load float, ptr %48, align 4, !tbaa !178
  %50 = fcmp ogt float %.0.lcssa.i, %49
  br i1 %50, label %51, label %53

51:                                               ; preds = %47
  %52 = fsub float %49, %.0.lcssa.i
  br label %53

53:                                               ; preds = %47, %51, %45
  %.1 = phi float [ %52, %51 ], [ %.038, %47 ], [ %.038, %45 ]
  %54 = getelementptr inbounds nuw float, ptr %.val40, i64 %indvars.iv47
  %55 = load float, ptr %54, align 4, !tbaa !178
  %56 = fdiv float %.1, %55
  br i1 %17, label %.lr.ph.preheader, label %._crit_edge

.lr.ph.preheader:                                 ; preds = %53
  %wide.trip.count = zext nneg i32 %.val to i64
  br label %.lr.ph

._crit_edge:                                      ; preds = %.lr.ph, %53
  %57 = fadd float %.0.lcssa.i, %56
  %58 = getelementptr inbounds nuw float, ptr %13, i64 %indvars.iv47
  store float %57, ptr %58, align 4, !tbaa !178
  %indvars.iv.next48 = add nuw nsw i64 %indvars.iv47, 1
  %exitcond51.not = icmp eq i64 %indvars.iv.next48, %wide.trip.count50
  br i1 %exitcond51.not, label %._crit_edge45, label %14, !llvm.loop !541

.lr.ph:                                           ; preds = %.lr.ph.preheader, %.lr.ph
  %indvars.iv = phi i64 [ 0, %.lr.ph.preheader ], [ %indvars.iv.next, %.lr.ph ]
  %59 = getelementptr inbounds nuw [3 x float], ptr %16, i64 %indvars.iv
  %60 = load float, ptr %59, align 4, !tbaa !178
  %61 = fmul float %56, %60
  %62 = getelementptr inbounds nuw i8, ptr %59, i64 4
  %63 = load float, ptr %62, align 4, !tbaa !178
  %64 = fmul float %56, %63
  %65 = getelementptr inbounds nuw i8, ptr %59, i64 8
  %66 = load float, ptr %65, align 4, !tbaa !178
  %67 = fmul float %56, %66
  %68 = getelementptr inbounds nuw [3 x float], ptr %0, i64 %indvars.iv
  %69 = load float, ptr %68, align 4, !tbaa !178
  %70 = fadd float %61, %69
  %71 = getelementptr inbounds nuw i8, ptr %68, i64 4
  %72 = load float, ptr %71, align 4, !tbaa !178
  %73 = fadd float %64, %72
  %74 = getelementptr inbounds nuw i8, ptr %68, i64 8
  %75 = load float, ptr %74, align 4, !tbaa !178
  %76 = fadd float %67, %75
  store float %70, ptr %68, align 4, !tbaa !178
  store float %73, ptr %71, align 4, !tbaa !178
  store float %76, ptr %74, align 4, !tbaa !178
  %indvars.iv.next = add nuw nsw i64 %indvars.iv, 1
  %exitcond.not = icmp eq i64 %indvars.iv.next, %wide.trip.count
  br i1 %exitcond.not, label %._crit_edge, label %.lr.ph, !llvm.loop !542
}